; Function Attrs: mustprogress uwtable
define void @_ZN9grpc_core31ResourceQuotaFromEndpointConfigERKN17grpc_event_engine12experimental14EndpointConfigE(ptr noalias nocapture writeonly sret(%"class.grpc_core::RefCountedPtr") align 8 %agg.result, ptr noundef nonnull align 8 dereferenceable(8) %config) local_unnamed_addr #3 personality ptr @__gxx_personality_v0 {
entry:
  %vtable = load ptr, ptr %config, align 8
  %vfn = getelementptr inbounds i8, ptr %vtable, i64 32
  %0 = load ptr, ptr %vfn, align 8
  %call = tail call noundef ptr %0(ptr noundef nonnull align 8 dereferenceable(8) %config, i64 19, ptr nonnull @.str)
  %cmp.not = icmp eq ptr %call, null
  br i1 %cmp.not, label %return, label %if.then

if.then:                                          ; preds = %entry
  %refs_.i.i = getelementptr inbounds i8, ptr %call, i64 8
  %1 = atomicrmw add ptr %refs_.i.i, i64 1 monotonic, align 8, !noalias !7
  br label %return

return:                                           ; preds = %entry, %if.then
  store ptr %call, ptr %agg.result, align 8
  ret void
}